; Function Attrs: mustprogress uwtable
define hidden noundef ptr @_ZNK17array_recognizers17get_map_func_declEP9func_decl(ptr nocapture noundef nonnull readnone align 4 dereferenceable(4) %this, ptr nocapture noundef readonly %f) local_unnamed_addr #3 align 2 {
entry:
  %m_info.i = getelementptr inbounds i8, ptr %f, i64 24
  %0 = load ptr, ptr %m_info.i, align 8
  %m_parameters.i.i = getelementptr inbounds i8, ptr %0, i64 8
  %1 = load ptr, ptr %m_parameters.i.i, align 8
  %_M_index.i.i.i.i = getelementptr inbounds i8, ptr %1, i64 8
  %2 = load i8, ptr %_M_index.i.i.i.i, align 8
  %cmp.not.i.i.i = icmp eq i8 %2, 1
  br i1 %cmp.not.i.i.i, label %_ZNK9parameter7get_astEv.exit, label %if.then.i.i.i

if.then.i.i.i:                                    ; preds = %entry
  %exception.i.i.i.i.i = tail call ptr @__cxa_allocate_exception(i64 16) #19
  store ptr getelementptr inbounds ({ [5 x ptr] }, ptr @_ZTVSt18bad_variant_access, i64 0, i32 0, i64 2), ptr %exception.i.i.i.i.i, align 8
  %_M_reason.i.i.i.i.i.i = getelementptr inbounds i8, ptr %exception.i.i.i.i.i, i64 8
  store ptr @.str.76, ptr %_M_reason.i.i.i.i.i.i, align 8
  tail call void @__cxa_throw(ptr nonnull %exception.i.i.i.i.i, ptr nonnull @_ZTISt18bad_variant_access, ptr nonnull @_ZNSt18bad_variant_accessD2Ev) #18
  unreachable

_ZNK9parameter7get_astEv.exit:                    ; preds = %entry
  %3 = load ptr, ptr %1, align 8
  ret ptr %3
}